; Function Attrs: mustprogress uwtable
define dso_local void @_ZN4Json6Reader10addCommentEPKcS2_NS_16CommentPlacementE(ptr noundef nonnull align 8 dereferenceable(269) %0, ptr noundef %1, ptr noundef %2, i32 noundef %3) local_unnamed_addr #6 align 2 personality ptr @__gxx_personality_v0 {
  %5 = alloca %"class.std::__cxx11::basic_string", align 8
  %6 = alloca %"class.std::__cxx11::basic_string", align 8
  call void @_ZNSt7__cxx1112basic_stringIcSt11char_traitsIcESaIcEEC1Ev(ptr noundef nonnull align 8 dereferenceable(32) %5) #25
  %7 = ptrtoint ptr %2 to i64
  %8 = ptrtoint ptr %1 to i64
  %9 = sub i64 %7, %8
  invoke void @_ZNSt7__cxx1112basic_stringIcSt11char_traitsIcESaIcEE7reserveEm(ptr noundef nonnull align 8 dereferenceable(32) %5, i64 noundef %9)
          to label %.preheader.i unwind label %.loopexit.split-lp.i

.preheader.i:                                     ; preds = %4
  %.not18.i = icmp eq ptr %1, %2
  br i1 %.not18.i, label %_ZN4Json6Reader12normalizeEOLB5cxx11EPKcS2_.exit, label %.lr.ph.i

.lr.ph.i:                                         ; preds = %.preheader.i, %22
  %.019.i = phi ptr [ %.2.i, %22 ], [ %1, %.preheader.i ]
  %10 = getelementptr inbounds i8, ptr %.019.i, i64 1
  %11 = load i8, ptr %.019.i, align 1, !noalias !117
  %12 = icmp eq i8 %11, 13
  br i1 %12, label %13, label %20

13:                                               ; preds = %.lr.ph.i
  %.not17.i = icmp eq ptr %10, %2
  br i1 %.not17.i, label %18, label %14

14:                                               ; preds = %13
  %15 = load i8, ptr %10, align 1, !noalias !117
  %16 = icmp eq i8 %15, 10
  %17 = getelementptr inbounds i8, ptr %.019.i, i64 2
  %spec.select.i = select i1 %16, ptr %17, ptr %10
  br label %18

.loopexit.i:                                      ; preds = %20, %18
  %lpad.loopexit.i = landingpad { ptr, i32 }
          cleanup
  br label %common.resume

.loopexit.split-lp.i:                             ; preds = %4
  %lpad.loopexit.split-lp.i = landingpad { ptr, i32 }
          cleanup
  br label %common.resume

common.resume:                                    ; preds = %29, %31, %.loopexit.i, %.loopexit.split-lp.i
  %common.resume.op = phi { ptr, i32 } [ %lpad.loopexit.i, %.loopexit.i ], [ %lpad.loopexit.split-lp.i, %.loopexit.split-lp.i ], [ %32, %31 ], [ %30, %29 ]
  call void @_ZNSt7__cxx1112basic_stringIcSt11char_traitsIcESaIcEED1Ev(ptr noundef nonnull align 8 dereferenceable(32) %5) #25
  resume { ptr, i32 } %common.resume.op

18:                                               ; preds = %14, %13
  %.1.i = phi ptr [ %2, %13 ], [ %spec.select.i, %14 ]
  %19 = invoke noundef nonnull align 8 dereferenceable(32) ptr @_ZNSt7__cxx1112basic_stringIcSt11char_traitsIcESaIcEEpLEc(ptr noundef nonnull align 8 dereferenceable(32) %5, i8 noundef signext 10)
          to label %22 unwind label %.loopexit.i

20:                                               ; preds = %.lr.ph.i
  %21 = invoke noundef nonnull align 8 dereferenceable(32) ptr @_ZNSt7__cxx1112basic_stringIcSt11char_traitsIcESaIcEEpLEc(ptr noundef nonnull align 8 dereferenceable(32) %5, i8 noundef signext %11)
          to label %22 unwind label %.loopexit.i

22:                                               ; preds = %20, %18
  %.2.i = phi ptr [ %.1.i, %18 ], [ %10, %20 ]
  %.not.i = icmp eq ptr %.2.i, %2
  br i1 %.not.i, label %_ZN4Json6Reader12normalizeEOLB5cxx11EPKcS2_.exit, label %.lr.ph.i, !llvm.loop !120

_ZN4Json6Reader12normalizeEOLB5cxx11EPKcS2_.exit: ; preds = %22, %.preheader.i
  %23 = icmp eq i32 %3, 1
  br i1 %23, label %24, label %33

24:                                               ; preds = %_ZN4Json6Reader12normalizeEOLB5cxx11EPKcS2_.exit
  %25 = getelementptr inbounds i8, ptr %0, i64 224
  %26 = load ptr, ptr %25, align 8
  invoke void @_ZNSt7__cxx1112basic_stringIcSt11char_traitsIcESaIcEEC1ERKS4_(ptr noundef nonnull align 8 dereferenceable(32) %6, ptr noundef nonnull align 8 dereferenceable(32) %5)
          to label %27 unwind label %29

27:                                               ; preds = %24
  invoke void @_ZN4Json5Value10setCommentENSt7__cxx1112basic_stringIcSt11char_traitsIcESaIcEEENS_16CommentPlacementE(ptr noundef nonnull align 8 dereferenceable(40) %26, ptr noundef nonnull %6, i32 noundef 1)
          to label %28 unwind label %31

28:                                               ; preds = %27
  call void @_ZNSt7__cxx1112basic_stringIcSt11char_traitsIcESaIcEED1Ev(ptr noundef nonnull align 8 dereferenceable(32) %6) #25
  br label %36

29:                                               ; preds = %33, %24
  %30 = landingpad { ptr, i32 }
          cleanup
  br label %common.resume

31:                                               ; preds = %27
  %32 = landingpad { ptr, i32 }
          cleanup
  call void @_ZNSt7__cxx1112basic_stringIcSt11char_traitsIcESaIcEED1Ev(ptr noundef nonnull align 8 dereferenceable(32) %6) #25
  br label %common.resume

33:                                               ; preds = %_ZN4Json6Reader12normalizeEOLB5cxx11EPKcS2_.exit
  %34 = getelementptr inbounds i8, ptr %0, i64 232
  %35 = invoke noundef nonnull align 8 dereferenceable(32) ptr @_ZNSt7__cxx1112basic_stringIcSt11char_traitsIcESaIcEEpLERKS4_(ptr noundef nonnull align 8 dereferenceable(32) %34, ptr noundef nonnull align 8 dereferenceable(32) %5)
          to label %36 unwind label %29

36:                                               ; preds = %33, %28
  call void @_ZNSt7__cxx1112basic_stringIcSt11char_traitsIcESaIcEED1Ev(ptr noundef nonnull align 8 dereferenceable(32) %5) #25
  ret void
}